; Function Attrs: nounwind uwtable
define dso_local void @tr2_cfg_set_fl(ptr noundef %0, i32 noundef %1, ptr noundef %2, ptr noundef %3) local_unnamed_addr #0 {
  %5 = alloca %struct.key_value_info, align 8
  call void @llvm.lifetime.start.p0(i64 32, ptr nonnull %5) #8
  call void @llvm.memcpy.p0.p0.i64(ptr noundef nonnull align 8 dereferenceable(32) %5, ptr noundef nonnull align 8 dereferenceable(32) @__const.tr2_cfg_set_fl.kvi, i64 32, i1 false)
  %6 = tail call fastcc i32 @tr2_cfg_load_patterns()
  %7 = icmp sgt i32 %6, 0
  br i1 %7, label %8, label %tr2_cfg_cb.exit

8:                                                ; preds = %4
  %9 = load ptr, ptr @tr2_cfg_patterns, align 8, !tbaa !4
  %10 = load ptr, ptr %9, align 8, !tbaa !18
  %.not17.i = icmp eq ptr %10, null
  br i1 %.not17.i, label %tr2_cfg_cb.exit, label %.critedge.i

11:                                               ; preds = %.critedge.i
  %12 = getelementptr inbounds nuw i8, ptr %.01418.i, i64 8
  %13 = load ptr, ptr %12, align 8, !tbaa !18
  %.not.i = icmp eq ptr %13, null
  br i1 %.not.i, label %tr2_cfg_cb.exit, label %.critedge.i, !llvm.loop !27

.critedge.i:                                      ; preds = %8, %11
  %14 = phi ptr [ %13, %11 ], [ %10, %8 ]
  %.01418.i = phi ptr [ %12, %11 ], [ %9, %8 ]
  %15 = getelementptr inbounds nuw i8, ptr %14, i64 16
  %16 = load ptr, ptr %15, align 8, !tbaa !23
  %17 = tail call i32 @wildmatch(ptr noundef %16, ptr noundef %2, i32 noundef 1) #8
  %.not16.i = icmp eq i32 %17, 0
  br i1 %.not16.i, label %18, label %11

18:                                               ; preds = %.critedge.i
  call void @trace2_def_param_fl(ptr noundef %0, i32 noundef %1, ptr noundef %2, ptr noundef %3, ptr noundef nonnull %5) #8
  br label %tr2_cfg_cb.exit

tr2_cfg_cb.exit:                                  ; preds = %11, %18, %8, %4
  call void @llvm.lifetime.end.p0(i64 32, ptr nonnull %5) #8
  ret void
}